; Function Attrs: mustprogress nofree norecurse nosync nounwind willreturn memory(argmem: readwrite) uwtable
define dso_local noundef zeroext i1 @_ZN4llvm4yaml6Output17matchEnumFallbackEv(ptr noundef nonnull align 8 captures(none) dereferenceable(128) %0) unnamed_addr #15 align 2 {
  %2 = getelementptr inbounds nuw i8, ptr %0, i64 94
  %3 = load i8, ptr %2, align 2
  %4 = trunc i8 %3 to i1
  br i1 %4, label %6, label %5

5:                                                ; preds = %1
  store i8 1, ptr %2, align 2
  br label %6

6:                                                ; preds = %1, %5
  %.0 = xor i1 %4, true
  ret i1 %.0
}